	.text
	.attribute	4, 16
	.attribute	5, "rv32i2p0_m2p0_a2p0_c2p0"
	.file	"runtime.f2510b35-cgu.0"
	.file	1 "/tmp/7394dda2f8f74cce9e4bfcfcbbdb431a" "runtime/src/lib.rs"
	.file	2 "/tmp/7394dda2f8f74cce9e4bfcfcbbdb431a" "runtime/src/allocator.rs"
	.section	".text._ZN44_$LT$$RF$T$u20$as$u20$core..fmt..Display$GT$3fmt17h836d5850d2369794E","ax",@progbits
	.p2align	1
	.type	_ZN44_$LT$$RF$T$u20$as$u20$core..fmt..Display$GT$3fmt17h836d5850d2369794E,@function
_ZN44_$LT$$RF$T$u20$as$u20$core..fmt..Display$GT$3fmt17h836d5850d2369794E:
.Lfunc_begin0:
	.file	3 "/home/isk/.rustup/toolchains/nightly-2023-01-03-x86_64-unknown-linux-gnu/lib/rustlib/src/rust/library/core/src/fmt" "mod.rs"
	.loc	3 2372 0
	.cfi_sections .debug_frame
	.cfi_startproc
	.loc	3 2372 71 prologue_end
	lw	a0, 0(a0)
.Ltmp0:
	.loc	3 2372 62 is_stmt 0
	tail	_ZN73_$LT$core..panic..panic_info..PanicInfo$u20$as$u20$core..fmt..Display$GT$3fmt17ha489d67f6aece228E
.Ltmp1:
.Lfunc_end0:
	.size	_ZN44_$LT$$RF$T$u20$as$u20$core..fmt..Display$GT$3fmt17h836d5850d2369794E, .Lfunc_end0-_ZN44_$LT$$RF$T$u20$as$u20$core..fmt..Display$GT$3fmt17h836d5850d2369794E
	.cfi_endproc

	.section	.text._ZN4core3fmt5Write10write_char17hb89db1f3f358db2cE,"ax",@progbits
	.p2align	1
	.type	_ZN4core3fmt5Write10write_char17hb89db1f3f358db2cE,@function
_ZN4core3fmt5Write10write_char17hb89db1f3f358db2cE:
.Lfunc_begin1:
	.loc	3 168 0 is_stmt 1
	.cfi_startproc
	addi	sp, sp, -16
	.cfi_def_cfa_offset 16
	li	a0, 128
.Ltmp2:
	.loc	3 169 43 prologue_end
	sw	zero, 12(sp)
.Ltmp3:
	.file	4 "/home/isk/.rustup/toolchains/nightly-2023-01-03-x86_64-unknown-linux-gnu/lib/rustlib/src/rust/library/core/src/char" "methods.rs"
	.loc	4 1702 8
	bgeu	a1, a0, .LBB1_2
.Ltmp4:
	.loc	4 1733 13
	sb	a1, 12(sp)
	li	a1, 1
.Ltmp5:
	.loc	4 0 13 is_stmt 0
	j	.LBB1_7
.Ltmp6:
.LBB1_2:
	.loc	4 1704 15 is_stmt 1
	srli	a0, a1, 11
	bnez	a0, .LBB1_4
.Ltmp7:
	.loc	4 1736 19
	srli	a0, a1, 6
	.loc	4 1736 13 is_stmt 0
	ori	a0, a0, 192
	sb	a0, 12(sp)
	.loc	4 1737 18 is_stmt 1
	andi	a0, a1, 63
	.loc	4 1737 13 is_stmt 0
	ori	a0, a0, 128
	sb	a0, 13(sp)
	li	a1, 2
.Ltmp8:
	.loc	4 0 13
	j	.LBB1_7
.Ltmp9:
.LBB1_4:
	.loc	4 1706 15 is_stmt 1
	srli	a0, a1, 16
	.loc	4 1706 12 is_stmt 0
	bnez	a0, .LBB1_6
.Ltmp10:
	.loc	4 1740 19 is_stmt 1
	srli	a0, a1, 12
	.loc	4 1740 13 is_stmt 0
	ori	a0, a0, 224
	sb	a0, 12(sp)
	.loc	4 1741 18 is_stmt 1
	slli	a0, a1, 20
	srli	a0, a0, 26
	.loc	4 1741 13 is_stmt 0
	ori	a0, a0, 128
	sb	a0, 13(sp)
	.loc	4 1742 18 is_stmt 1
	andi	a0, a1, 63
	.loc	4 1742 13 is_stmt 0
	ori	a0, a0, 128
	sb	a0, 14(sp)
	li	a1, 3
.Ltmp11:
	.loc	4 0 13
	j	.LBB1_7
.Ltmp12:
.LBB1_6:
	.loc	4 1745 18 is_stmt 1
	slli	a0, a1, 11
	srli	a0, a0, 29
	.loc	4 1745 13 is_stmt 0
	ori	a0, a0, 240
	sb	a0, 12(sp)
	.loc	4 1746 18 is_stmt 1
	slli	a0, a1, 14
	srli	a0, a0, 26
	.loc	4 1746 13 is_stmt 0
	ori	a0, a0, 128
	sb	a0, 13(sp)
	.loc	4 1747 18 is_stmt 1
	slli	a0, a1, 20
	srli	a0, a0, 26
	.loc	4 1747 13 is_stmt 0
	ori	a0, a0, 128
	sb	a0, 14(sp)
	.loc	4 1748 18 is_stmt 1
	andi	a0, a1, 63
	.loc	4 1748 13 is_stmt 0
	ori	a0, a0, 128
	sb	a0, 15(sp)
	li	a1, 4
.Ltmp13:
.LBB1_7:
	.loc	4 0 13
	li	a2, 0
	addi	a3, sp, 12
.Ltmp14:
.LBB1_8:
	.file	5 "/home/isk/.rustup/toolchains/nightly-2023-01-03-x86_64-unknown-linux-gnu/lib/rustlib/src/rust/library/core/src/ptr" "mut_ptr.rs"
	.loc	5 499 18 is_stmt 1
	add	a0, a3, a2
.Ltmp15:
	.file	6 "/home/isk/.rustup/toolchains/nightly-2023-01-03-x86_64-unknown-linux-gnu/lib/rustlib/src/rust/library/core/src" "option.rs"
	.loc	6 1804 19
	lbu	a0, 0(a0)
.Ltmp16:
	.file	7 "/tmp/7394dda2f8f74cce9e4bfcfcbbdb431a" "runtime/src/fmt.rs"
	.loc	7 38 9
	#APP
	ebreak	
	#NO_APP
.Ltmp17:
	.file	8 "/home/isk/.rustup/toolchains/nightly-2023-01-03-x86_64-unknown-linux-gnu/lib/rustlib/src/rust/library/core/src/slice/iter" "macros.rs"
	.loc	8 146 24
	addi	a2, a2, 1
.Ltmp18:
	bne	a1, a2, .LBB1_8
.Ltmp19:
	.loc	3 170 6
	li	a0, 0
	addi	sp, sp, 16
	ret
.Ltmp20:
.Lfunc_end1:
	.size	_ZN4core3fmt5Write10write_char17hb89db1f3f358db2cE, .Lfunc_end1-_ZN4core3fmt5Write10write_char17hb89db1f3f358db2cE
	.cfi_endproc
	.file	9 "/home/isk/.rustup/toolchains/nightly-2023-01-03-x86_64-unknown-linux-gnu/lib/rustlib/src/rust/library/core/src/iter/adapters" "copied.rs"
	.file	10 "/home/isk/.rustup/toolchains/nightly-2023-01-03-x86_64-unknown-linux-gnu/lib/rustlib/src/rust/library/core/src/str" "iter.rs"

	.section	.text._ZN4core3fmt5Write9write_fmt17hdd192214879d3752E,"ax",@progbits
	.p2align	1
	.type	_ZN4core3fmt5Write9write_fmt17hdd192214879d3752E,@function
_ZN4core3fmt5Write9write_fmt17hdd192214879d3752E:
.Lfunc_begin2:
	.loc	3 191 0
	.cfi_startproc
	addi	sp, sp, -48
	.cfi_def_cfa_offset 48
.Ltmp21:
	.loc	3 192 26 prologue_end
	sw	ra, 44(sp)
	.cfi_offset ra, -4
	lw	a2, 20(a1)
	lw	a3, 16(a1)
	sw	a0, 12(sp)
	sw	a2, 36(sp)
	sw	a3, 32(sp)
	lw	a0, 12(a1)
.Ltmp22:
	lw	a2, 8(a1)
	lw	a3, 4(a1)
	lw	a1, 0(a1)
.Ltmp23:
	sw	a0, 28(sp)
	sw	a2, 24(sp)
	sw	a3, 20(sp)
	sw	a1, 16(sp)
.Ltmp24:
	.loc	3 192 9 is_stmt 0
	lui	a0, %hi(.L__unnamed_1)
	addi	a1, a0, %lo(.L__unnamed_1)
	addi	a0, sp, 12
	addi	a2, sp, 16
	call	_ZN4core3fmt5write17hda322afc7decd44cE
	.loc	3 193 6 is_stmt 1
	lw	ra, 44(sp)
	addi	sp, sp, 48
	ret
.Ltmp25:
.Lfunc_end2:
	.size	_ZN4core3fmt5Write9write_fmt17hdd192214879d3752E, .Lfunc_end2-_ZN4core3fmt5Write9write_fmt17hdd192214879d3752E
	.cfi_endproc

	.section	".text._ZN4core3ptr37drop_in_place$LT$core..fmt..Error$GT$17hdbf2508ea5271c6aE","ax",@progbits
	.p2align	1
	.type	_ZN4core3ptr37drop_in_place$LT$core..fmt..Error$GT$17hdbf2508ea5271c6aE,@function
_ZN4core3ptr37drop_in_place$LT$core..fmt..Error$GT$17hdbf2508ea5271c6aE:
.Lfunc_begin3:
	.file	11 "/home/isk/.rustup/toolchains/nightly-2023-01-03-x86_64-unknown-linux-gnu/lib/rustlib/src/rust/library/core/src/ptr" "mod.rs"
	.loc	11 490 0
	.cfi_startproc
	.loc	11 490 1 prologue_end
	ret
.Ltmp26:
.Lfunc_end3:
	.size	_ZN4core3ptr37drop_in_place$LT$core..fmt..Error$GT$17hdbf2508ea5271c6aE, .Lfunc_end3-_ZN4core3ptr37drop_in_place$LT$core..fmt..Error$GT$17hdbf2508ea5271c6aE
	.cfi_endproc

	.section	".text._ZN50_$LT$$RF$mut$u20$W$u20$as$u20$core..fmt..Write$GT$10write_char17h549481de3947b733E","ax",@progbits
	.p2align	1
	.type	_ZN50_$LT$$RF$mut$u20$W$u20$as$u20$core..fmt..Write$GT$10write_char17h549481de3947b733E,@function
_ZN50_$LT$$RF$mut$u20$W$u20$as$u20$core..fmt..Write$GT$10write_char17h549481de3947b733E:
.Lfunc_begin4:
	.loc	3 202 0
	.cfi_startproc
	addi	sp, sp, -16
	.cfi_def_cfa_offset 16
	li	a0, 128
.Ltmp27:
	.loc	3 169 43 prologue_end
	sw	zero, 12(sp)
.Ltmp28:
	.loc	4 1702 8
	bgeu	a1, a0, .LBB4_2
.Ltmp29:
	.loc	4 1733 13
	sb	a1, 12(sp)
	li	a1, 1
.Ltmp30:
	.loc	4 0 13 is_stmt 0
	j	.LBB4_7
.Ltmp31:
.LBB4_2:
	.loc	4 1704 15 is_stmt 1
	srli	a0, a1, 11
	bnez	a0, .LBB4_4
.Ltmp32:
	.loc	4 1736 19
	srli	a0, a1, 6
	.loc	4 1736 13 is_stmt 0
	ori	a0, a0, 192
	sb	a0, 12(sp)
	.loc	4 1737 18 is_stmt 1
	andi	a0, a1, 63
	.loc	4 1737 13 is_stmt 0
	ori	a0, a0, 128
	sb	a0, 13(sp)
	li	a1, 2
.Ltmp33:
	.loc	4 0 13
	j	.LBB4_7
.Ltmp34:
.LBB4_4:
	.loc	4 1706 15 is_stmt 1
	srli	a0, a1, 16
	.loc	4 1706 12 is_stmt 0
	bnez	a0, .LBB4_6
.Ltmp35:
	.loc	4 1740 19 is_stmt 1
	srli	a0, a1, 12
	.loc	4 1740 13 is_stmt 0
	ori	a0, a0, 224
	sb	a0, 12(sp)
	.loc	4 1741 18 is_stmt 1
	slli	a0, a1, 20
	srli	a0, a0, 26
	.loc	4 1741 13 is_stmt 0
	ori	a0, a0, 128
	sb	a0, 13(sp)
	.loc	4 1742 18 is_stmt 1
	andi	a0, a1, 63
	.loc	4 1742 13 is_stmt 0
	ori	a0, a0, 128
	sb	a0, 14(sp)
	li	a1, 3
.Ltmp36:
	.loc	4 0 13
	j	.LBB4_7
.Ltmp37:
.LBB4_6:
	.loc	4 1745 18 is_stmt 1
	slli	a0, a1, 11
	srli	a0, a0, 29
	.loc	4 1745 13 is_stmt 0
	ori	a0, a0, 240
	sb	a0, 12(sp)
	.loc	4 1746 18 is_stmt 1
	slli	a0, a1, 14
	srli	a0, a0, 26
	.loc	4 1746 13 is_stmt 0
	ori	a0, a0, 128
	sb	a0, 13(sp)
	.loc	4 1747 18 is_stmt 1
	slli	a0, a1, 20
	srli	a0, a0, 26
	.loc	4 1747 13 is_stmt 0
	ori	a0, a0, 128
	sb	a0, 14(sp)
	.loc	4 1748 18 is_stmt 1
	andi	a0, a1, 63
	.loc	4 1748 13 is_stmt 0
	ori	a0, a0, 128
	sb	a0, 15(sp)
	li	a1, 4
.Ltmp38:
.LBB4_7:
	.loc	4 0 13
	li	a2, 0
	addi	a3, sp, 12
.Ltmp39:
.LBB4_8:
	.loc	5 499 18 is_stmt 1
	add	a0, a3, a2
.Ltmp40:
	.loc	6 1804 19
	lbu	a0, 0(a0)
.Ltmp41:
	.loc	7 38 9
	#APP
	ebreak	
	#NO_APP
.Ltmp42:
	.loc	8 146 24
	addi	a2, a2, 1
.Ltmp43:
	bne	a1, a2, .LBB4_8
.Ltmp44:
	.loc	3 204 6
	li	a0, 0
	addi	sp, sp, 16
	ret
.Ltmp45:
.Lfunc_end4:
	.size	_ZN50_$LT$$RF$mut$u20$W$u20$as$u20$core..fmt..Write$GT$10write_char17h549481de3947b733E, .Lfunc_end4-_ZN50_$LT$$RF$mut$u20$W$u20$as$u20$core..fmt..Write$GT$10write_char17h549481de3947b733E
	.cfi_endproc

	.section	".text._ZN50_$LT$$RF$mut$u20$W$u20$as$u20$core..fmt..Write$GT$9write_fmt17hb4b4de78c9976264E","ax",@progbits
	.p2align	1
	.type	_ZN50_$LT$$RF$mut$u20$W$u20$as$u20$core..fmt..Write$GT$9write_fmt17hb4b4de78c9976264E,@function
_ZN50_$LT$$RF$mut$u20$W$u20$as$u20$core..fmt..Write$GT$9write_fmt17hb4b4de78c9976264E:
.Lfunc_begin5:
	.loc	3 206 0
	.cfi_startproc
	addi	sp, sp, -48
	.cfi_def_cfa_offset 48
.Ltmp46:
	.loc	3 207 9 prologue_end
	sw	ra, 44(sp)
	.cfi_offset ra, -4
	lw	a0, 0(a0)
.Ltmp47:
	.loc	3 192 26
	lw	a2, 20(a1)
	lw	a3, 16(a1)
	sw	a0, 12(sp)
	sw	a2, 36(sp)
	sw	a3, 32(sp)
	lw	a0, 12(a1)
.Ltmp48:
	lw	a2, 8(a1)
	lw	a3, 4(a1)
	lw	a1, 0(a1)
.Ltmp49:
	sw	a0, 28(sp)
	sw	a2, 24(sp)
	sw	a3, 20(sp)
	sw	a1, 16(sp)
.Ltmp50:
	.loc	3 192 9 is_stmt 0
	lui	a0, %hi(.L__unnamed_1)
	addi	a1, a0, %lo(.L__unnamed_1)
	addi	a0, sp, 12
	addi	a2, sp, 16
	call	_ZN4core3fmt5write17hda322afc7decd44cE
.Ltmp51:
	.loc	3 208 6 is_stmt 1
	lw	ra, 44(sp)
	addi	sp, sp, 48
	ret
.Ltmp52:
.Lfunc_end5:
	.size	_ZN50_$LT$$RF$mut$u20$W$u20$as$u20$core..fmt..Write$GT$9write_fmt17hb4b4de78c9976264E, .Lfunc_end5-_ZN50_$LT$$RF$mut$u20$W$u20$as$u20$core..fmt..Write$GT$9write_fmt17hb4b4de78c9976264E
	.cfi_endproc

	.section	".text._ZN50_$LT$$RF$mut$u20$W$u20$as$u20$core..fmt..Write$GT$9write_str17hdf6f33c3cf84f49fE","ax",@progbits
	.p2align	1
	.type	_ZN50_$LT$$RF$mut$u20$W$u20$as$u20$core..fmt..Write$GT$9write_str17hdf6f33c3cf84f49fE,@function
_ZN50_$LT$$RF$mut$u20$W$u20$as$u20$core..fmt..Write$GT$9write_str17hdf6f33c3cf84f49fE:
.Lfunc_begin6:
	.loc	3 198 0
	.cfi_startproc
	.cfi_def_cfa_offset 0
	.loc	8 146 24 prologue_end
	beqz	a2, .LBB6_2
.Ltmp53:
.LBB6_1:
	.loc	6 1804 19
	lbu	a0, 0(a1)
.Ltmp54:
	.loc	7 38 9
	#APP
	ebreak	
	#NO_APP
.Ltmp55:
	.loc	5 499 18
	addi	a1, a1, 1
.Ltmp56:
	.loc	8 146 24
	addi	a2, a2, -1
	bnez	a2, .LBB6_1
.Ltmp57:
.LBB6_2:
	.loc	3 200 6
	li	a0, 0
	ret
.Ltmp58:
.Lfunc_end6:
	.size	_ZN50_$LT$$RF$mut$u20$W$u20$as$u20$core..fmt..Write$GT$9write_str17hdf6f33c3cf84f49fE, .Lfunc_end6-_ZN50_$LT$$RF$mut$u20$W$u20$as$u20$core..fmt..Write$GT$9write_str17hdf6f33c3cf84f49fE
	.cfi_endproc

	.section	.text._ZN7runtime12coprocessors13poseidon_hash17he26469b93349f9c5E,"ax",@progbits
	.globl	_ZN7runtime12coprocessors13poseidon_hash17he26469b93349f9c5E
	.p2align	1
	.type	_ZN7runtime12coprocessors13poseidon_hash17he26469b93349f9c5E,@function
_ZN7runtime12coprocessors13poseidon_hash17he26469b93349f9c5E:
.Lfunc_begin7:
	.file	12 "/tmp/7394dda2f8f74cce9e4bfcfcbbdb431a" "runtime/src/coprocessors.rs"
	.loc	12 10 0
	.cfi_startproc
	.loc	12 11 14 prologue_end
	tail	poseidon_coprocessor
.Ltmp59:
.Lfunc_end7:
	.size	_ZN7runtime12coprocessors13poseidon_hash17he26469b93349f9c5E, .Lfunc_end7-_ZN7runtime12coprocessors13poseidon_hash17he26469b93349f9c5E
	.cfi_endproc

	.section	.text._ZN7runtime3fmt10print_args17h58dac8894c543139E,"ax",@progbits
	.globl	_ZN7runtime3fmt10print_args17h58dac8894c543139E
	.p2align	1
	.type	_ZN7runtime3fmt10print_args17h58dac8894c543139E,@function
_ZN7runtime3fmt10print_args17h58dac8894c543139E:
.Lfunc_begin8:
	.loc	7 11 0
	.cfi_startproc
	addi	sp, sp, -32
	.cfi_def_cfa_offset 32
.Ltmp60:
	.loc	7 12 38 prologue_end
	sw	ra, 28(sp)
	.cfi_offset ra, -4
	lw	a1, 20(a0)
	lw	a2, 16(a0)
	sw	a1, 20(sp)
	sw	a2, 16(sp)
	lw	a1, 12(a0)
	lw	a2, 8(a0)
	lw	a3, 4(a0)
	lw	a0, 0(a0)
.Ltmp61:
	sw	a1, 12(sp)
	sw	a2, 8(sp)
	sw	a3, 4(sp)
	sw	a0, 0(sp)
	.loc	7 12 5 is_stmt 0
	lui	a0, %hi(.L__unnamed_2)
	addi	a1, a0, %lo(.L__unnamed_2)
	addi	a0, sp, 24
	mv	a2, sp
	call	_ZN4core3fmt5write17hda322afc7decd44cE
.Ltmp62:
	.file	13 "/home/isk/.rustup/toolchains/nightly-2023-01-03-x86_64-unknown-linux-gnu/lib/rustlib/src/rust/library/core/src" "result.rs"
	.loc	13 1110 9 is_stmt 1
	bnez	a0, .LBB8_2
.Ltmp63:
	.loc	7 13 2
	lw	ra, 28(sp)
	addi	sp, sp, 32
	ret
.LBB8_2:
.Ltmp64:
	.loc	13 1112 23
	lui	a0, %hi(.L__unnamed_4)
.Ltmp65:
	addi	a0, a0, %lo(.L__unnamed_4)
	lui	a1, %hi(.L__unnamed_3)
	addi	a3, a1, %lo(.L__unnamed_3)
	lui	a1, %hi(.L__unnamed_5)
	addi	a4, a1, %lo(.L__unnamed_5)
	li	a1, 43
	addi	a2, sp, 24
	call	_ZN4core6result13unwrap_failed17h27e446439bf30e10E
	unimp	
.Ltmp66:
.Lfunc_end8:
	.size	_ZN7runtime3fmt10print_args17h58dac8894c543139E, .Lfunc_end8-_ZN7runtime3fmt10print_args17h58dac8894c543139E
	.cfi_endproc

	.section	".text._ZN63_$LT$runtime..fmt..ProverWriter$u20$as$u20$core..fmt..Write$GT$9write_str17h4bb684c28ad13d4cE","ax",@progbits
	.globl	_ZN63_$LT$runtime..fmt..ProverWriter$u20$as$u20$core..fmt..Write$GT$9write_str17h4bb684c28ad13d4cE
	.p2align	1
	.type	_ZN63_$LT$runtime..fmt..ProverWriter$u20$as$u20$core..fmt..Write$GT$9write_str17h4bb684c28ad13d4cE,@function
_ZN63_$LT$runtime..fmt..ProverWriter$u20$as$u20$core..fmt..Write$GT$9write_str17h4bb684c28ad13d4cE:
.Lfunc_begin9:
	.loc	7 18 0
	.cfi_startproc
	.cfi_def_cfa_offset 0
	.loc	8 146 24 prologue_end
	beqz	a2, .LBB9_2
.Ltmp67:
.LBB9_1:
	.loc	6 1804 19
	lbu	a0, 0(a1)
.Ltmp68:
	.loc	7 38 9
	#APP
	ebreak	
	#NO_APP
.Ltmp69:
	.loc	5 499 18
	addi	a1, a1, 1
.Ltmp70:
	.loc	8 146 24
	addi	a2, a2, -1
	bnez	a2, .LBB9_1
.Ltmp71:
.LBB9_2:
	.loc	7 21 6
	li	a0, 0
	ret
.Ltmp72:
.Lfunc_end9:
	.size	_ZN63_$LT$runtime..fmt..ProverWriter$u20$as$u20$core..fmt..Write$GT$9write_str17h4bb684c28ad13d4cE, .Lfunc_end9-_ZN63_$LT$runtime..fmt..ProverWriter$u20$as$u20$core..fmt..Write$GT$9write_str17h4bb684c28ad13d4cE
	.cfi_endproc

	.section	.text._ZN7runtime3fmt9print_str17hb830686122d90663E,"ax",@progbits
	.globl	_ZN7runtime3fmt9print_str17hb830686122d90663E
	.p2align	1
	.type	_ZN7runtime3fmt9print_str17hb830686122d90663E,@function
_ZN7runtime3fmt9print_str17hb830686122d90663E:
.Lfunc_begin10:
	.loc	7 24 0
	.cfi_startproc
	.cfi_def_cfa_offset 0
	.loc	8 146 24 prologue_end
	beqz	a1, .LBB10_3
.Ltmp73:
	.loc	8 0 24 is_stmt 0
	mv	a2, a0
.Ltmp74:
.LBB10_2:
	.loc	6 1804 19 is_stmt 1
	lbu	a0, 0(a2)
.Ltmp75:
	.loc	7 38 9
	#APP
	ebreak	
	#NO_APP
.Ltmp76:
	.loc	5 499 18
	addi	a2, a2, 1
.Ltmp77:
	.loc	8 146 24
	addi	a1, a1, -1
	bnez	a1, .LBB10_2
.Ltmp78:
.LBB10_3:
	.loc	7 31 2
	ret
.Ltmp79:
.Lfunc_end10:
	.size	_ZN7runtime3fmt9print_str17hb830686122d90663E, .Lfunc_end10-_ZN7runtime3fmt9print_str17hb830686122d90663E
	.cfi_endproc

	.section	.text.rust_begin_unwind,"ax",@progbits
	.globl	rust_begin_unwind
	.p2align	1
	.type	rust_begin_unwind,@function
rust_begin_unwind:
.Lfunc_begin11:
	.loc	1 19 0
	.cfi_startproc
	addi	sp, sp, -48
	.cfi_def_cfa_offset 48
.Ltmp80:
	.loc	1 22 9 prologue_end
	sw	ra, 44(sp)
	.cfi_offset ra, -4
	lui	a1, %hi(_ZN7runtime5panic12IS_PANICKING17h8bfa2bfcd2ea3115E.0)
	lbu	a2, %lo(_ZN7runtime5panic12IS_PANICKING17h8bfa2bfcd2ea3115E.0)(a1)
	sw	a0, 4(sp)
	.loc	1 22 8 is_stmt 0
	beqz	a2, .LBB11_2
.Ltmp81:
	.loc	7 38 9 is_stmt 1
	li	a0, 80
.Ltmp82:
	#APP
	ebreak	
	#NO_APP
.Ltmp83:
	li	a0, 97
	#APP
	ebreak	
	#NO_APP
.Ltmp84:
	li	a0, 110
	#APP
	ebreak	
	#NO_APP
.Ltmp85:
	li	a0, 105
	#APP
	ebreak	
	#NO_APP
.Ltmp86:
	li	a0, 99
	#APP
	ebreak	
	#NO_APP
.Ltmp87:
	li	a0, 32
	#APP
	ebreak	
	#NO_APP
.Ltmp88:
	li	a0, 104
	#APP
	ebreak	
	#NO_APP
.Ltmp89:
	li	a0, 97
	#APP
	ebreak	
	#NO_APP
.Ltmp90:
	li	a0, 110
	#APP
	ebreak	
	#NO_APP
.Ltmp91:
	li	a0, 100
	#APP
	ebreak	
	#NO_APP
.Ltmp92:
	li	a0, 108
	#APP
	ebreak	
	#NO_APP
.Ltmp93:
	li	a0, 101
	#APP
	ebreak	
	#NO_APP
.Ltmp94:
	li	a0, 114
	#APP
	ebreak	
	#NO_APP
.Ltmp95:
	li	a0, 32
	#APP
	ebreak	
	#NO_APP
.Ltmp96:
	li	a0, 104
	#APP
	ebreak	
	#NO_APP
.Ltmp97:
	li	a0, 97
	#APP
	ebreak	
	#NO_APP
.Ltmp98:
	li	a0, 115
	#APP
	ebreak	
	#NO_APP
.Ltmp99:
	li	a0, 32
	#APP
	ebreak	
	#NO_APP
.Ltmp100:
	li	a0, 112
	#APP
	ebreak	
	#NO_APP
.Ltmp101:
	li	a0, 97
	#APP
	ebreak	
	#NO_APP
.Ltmp102:
	li	a0, 110
	#APP
	ebreak	
	#NO_APP
.Ltmp103:
	li	a0, 105
	#APP
	ebreak	
	#NO_APP
.Ltmp104:
	li	a0, 99
	#APP
	ebreak	
	#NO_APP
.Ltmp105:
	li	a0, 107
	#APP
	ebreak	
	#NO_APP
.Ltmp106:
	li	a0, 101
	#APP
	ebreak	
	#NO_APP
.Ltmp107:
	li	a0, 100
	#APP
	ebreak	
	#NO_APP
.Ltmp108:
	li	a0, 33
	#APP
	ebreak	
	#NO_APP
.Ltmp109:
	li	a0, 32
	#APP
	ebreak	
	#NO_APP
.Ltmp110:
	li	a0, 84
	#APP
	ebreak	
	#NO_APP
.Ltmp111:
	li	a0, 104
	#APP
	ebreak	
	#NO_APP
.Ltmp112:
	li	a0, 105
	#APP
	ebreak	
	#NO_APP
.Ltmp113:
	li	a0, 110
	#APP
	ebreak	
	#NO_APP
.Ltmp114:
	li	a0, 103
	#APP
	ebreak	
	#NO_APP
.Ltmp115:
	li	a0, 115
	#APP
	ebreak	
	#NO_APP
.Ltmp116:
	li	a0, 32
	#APP
	ebreak	
	#NO_APP
.Ltmp117:
	li	a0, 97
	#APP
	ebreak	
	#NO_APP
.Ltmp118:
	li	a0, 114
	#APP
	ebreak	
	#NO_APP
.Ltmp119:
	li	a0, 101
	#APP
	ebreak	
	#NO_APP
.Ltmp120:
	li	a0, 32
	#APP
	ebreak	
	#NO_APP
.Ltmp121:
	li	a0, 118
	#APP
	ebreak	
	#NO_APP
.Ltmp122:
	li	a0, 101
	#APP
	ebreak	
	#NO_APP
.Ltmp123:
	li	a0, 114
	#APP
	ebreak	
	#NO_APP
.Ltmp124:
	li	a0, 121
	#APP
	ebreak	
	#NO_APP
.Ltmp125:
	li	a0, 32
	#APP
	ebreak	
	#NO_APP
.Ltmp126:
	li	a0, 100
	#APP
	ebreak	
	#NO_APP
.Ltmp127:
	li	a0, 105
	#APP
	ebreak	
	#NO_APP
.Ltmp128:
	li	a0, 114
	#APP
	ebreak	
	#NO_APP
.Ltmp129:
	li	a0, 101
	#APP
	ebreak	
	#NO_APP
.Ltmp130:
	li	a0, 32
	#APP
	ebreak	
	#NO_APP
.Ltmp131:
	li	a0, 105
	#APP
	ebreak	
	#NO_APP
.Ltmp132:
	li	a0, 110
	#APP
	ebreak	
	#NO_APP
.Ltmp133:
	li	a0, 100
	#APP
	ebreak	
	#NO_APP
.Ltmp134:
	li	a0, 101
	#APP
	ebreak	
	#NO_APP
	li	a0, 101
	#APP
	ebreak	
	#NO_APP
.Ltmp135:
	li	a0, 100
	#APP
	ebreak	
	#NO_APP
.Ltmp136:
	li	a0, 46
	#APP
	ebreak	
	#NO_APP
	li	a0, 46
	#APP
	ebreak	
	#NO_APP
	li	a0, 46
	#APP
	ebreak	
	#NO_APP
.Ltmp137:
	li	a0, 10
	#APP
	ebreak	
	#NO_APP
.Ltmp138:
	.loc	7 0 9 is_stmt 0
	j	.LBB11_3
.Ltmp139:
.LBB11_2:
	li	a0, 1
.Ltmp140:
	.loc	1 23 9 is_stmt 1
	sb	a0, %lo(_ZN7runtime5panic12IS_PANICKING17h8bfa2bfcd2ea3115E.0)(a1)
	addi	a1, sp, 4
	.loc	1 25 9
	sw	a1, 8(sp)
	lui	a1, %hi(_ZN44_$LT$$RF$T$u20$as$u20$core..fmt..Display$GT$3fmt17h836d5850d2369794E)
	addi	a1, a1, %lo(_ZN44_$LT$$RF$T$u20$as$u20$core..fmt..Display$GT$3fmt17h836d5850d2369794E)
	sw	a1, 12(sp)
.Ltmp141:
	.loc	7 12 38
	sw	zero, 16(sp)
	lui	a1, %hi(.L__unnamed_6)
	addi	a1, a1, %lo(.L__unnamed_6)
.Ltmp142:
	sw	a1, 24(sp)
	li	a1, 2
.Ltmp143:
	sw	a1, 28(sp)
	addi	a1, sp, 8
	sw	a1, 32(sp)
	sw	a0, 36(sp)
	.loc	7 12 5 is_stmt 0
	lui	a0, %hi(.L__unnamed_2)
	addi	a1, a0, %lo(.L__unnamed_2)
	addi	a0, sp, 40
	addi	a2, sp, 16
	call	_ZN4core3fmt5write17hda322afc7decd44cE
.Ltmp144:
	.loc	13 1110 9 is_stmt 1
	bnez	a0, .LBB11_5
.Ltmp145:
.LBB11_3:
	.loc	1 30 5
	#APP
	unimp	
	#NO_APP
.LBB11_4:
	.loc	1 31 5
	j	.LBB11_4
.LBB11_5:
.Ltmp146:
	.loc	13 1112 23
	lui	a0, %hi(.L__unnamed_4)
	addi	a0, a0, %lo(.L__unnamed_4)
	lui	a1, %hi(.L__unnamed_3)
	addi	a3, a1, %lo(.L__unnamed_3)
	lui	a1, %hi(.L__unnamed_5)
	addi	a4, a1, %lo(.L__unnamed_5)
	li	a1, 43
	addi	a2, sp, 40
	call	_ZN4core6result13unwrap_failed17h27e446439bf30e10E
	unimp	
.Ltmp147:
.Lfunc_end11:
	.size	rust_begin_unwind, .Lfunc_end11-rust_begin_unwind
	.cfi_endproc

	.section	.text.__runtime_start,"ax",@progbits
	.globl	__runtime_start
	.p2align	1
	.type	__runtime_start,@function
__runtime_start:
.Lfunc_begin12:
	.loc	1 48 0
	.cfi_startproc
	.loc	1 50 9 prologue_end
	tail	main
.Ltmp148:
.Lfunc_end12:
	.size	__runtime_start, .Lfunc_end12-__runtime_start
	.cfi_endproc

	.section	.text.__rg_alloc,"ax",@progbits
	.globl	__rg_alloc
	.p2align	1
	.type	__rg_alloc,@function
__rg_alloc:
.Lfunc_begin13:
	.loc	2 59 0
	.cfi_startproc
	.file	14 "/home/isk/.rustup/toolchains/nightly-2023-01-03-x86_64-unknown-linux-gnu/lib/rustlib/src/rust/library/core/src" "cell.rs"
	.loc	14 452 18 prologue_end
	lui	a2, %hi(_ZN7runtime9allocator6GLOBAL17h1fb95a21b2cd52a1E)
	lw	a3, %lo(_ZN7runtime9allocator6GLOBAL17h1fb95a21b2cd52a1E)(a2)
	addi	a4, a2, %lo(_ZN7runtime9allocator6GLOBAL17h1fb95a21b2cd52a1E)
.Ltmp149:
	.loc	2 37 28
	addi	a4, a4, 4
.Ltmp150:
	add	a5, a4, a1
	add	a3, a3, a5
	.loc	2 37 27 is_stmt 0
	addi	a3, a3, -1
.Ltmp151:
	.loc	2 37 61
	neg	a1, a1
.Ltmp152:
	.loc	2 37 27
	and	a1, a1, a3
.Ltmp153:
	.loc	2 40 37 is_stmt 1
	sub	a0, a0, a4
.Ltmp154:
	.loc	2 43 34
	add	a3, a1, a0
	lui	a4, 262144
	li	a0, 0
.Ltmp155:
	.loc	2 45 12
	bltu	a4, a3, .LBB13_2
.Ltmp156:
	.loc	11 1354 9
	sw	a3, %lo(_ZN7runtime9allocator6GLOBAL17h1fb95a21b2cd52a1E)(a2)
.Ltmp157:
	.loc	11 0 9 is_stmt 0
	mv	a0, a1
.Ltmp158:
.LBB13_2:
	.loc	2 59 95 is_stmt 1
	ret
.Ltmp159:
.Lfunc_end13:
	.size	__rg_alloc, .Lfunc_end13-__rg_alloc
	.cfi_endproc
	.file	15 "/home/isk/.rustup/toolchains/nightly-2023-01-03-x86_64-unknown-linux-gnu/lib/rustlib/src/rust/library/core/src/mem" "mod.rs"

	.section	.text.__rg_dealloc,"ax",@progbits
	.globl	__rg_dealloc
	.p2align	1
	.type	__rg_dealloc,@function
__rg_dealloc:
.Lfunc_begin14:
	.loc	2 59 0
	.cfi_startproc
	.loc	2 59 95 prologue_end
	ret
.Ltmp160:
.Lfunc_end14:
	.size	__rg_dealloc, .Lfunc_end14-__rg_dealloc
	.cfi_endproc

	.section	.text.__rg_realloc,"ax",@progbits
	.globl	__rg_realloc
	.p2align	1
	.type	__rg_realloc,@function
__rg_realloc:
.Lfunc_begin15:
	.loc	2 59 0
	.cfi_startproc
	addi	sp, sp, -16
	.cfi_def_cfa_offset 16
.Ltmp161:
	.file	16 "/home/isk/.rustup/toolchains/nightly-2023-01-03-x86_64-unknown-linux-gnu/lib/rustlib/src/rust/library/core/src/alloc" "global.rs"
	.loc	16 0 0 is_stmt 0
	sw	ra, 12(sp)
	sw	s0, 8(sp)
	.cfi_offset ra, -4
	.cfi_offset s0, -8
.Ltmp162:
	.loc	14 452 18 prologue_end is_stmt 1
	lui	a6, %hi(_ZN7runtime9allocator6GLOBAL17h1fb95a21b2cd52a1E)
	lw	a5, %lo(_ZN7runtime9allocator6GLOBAL17h1fb95a21b2cd52a1E)(a6)
	addi	s0, a6, %lo(_ZN7runtime9allocator6GLOBAL17h1fb95a21b2cd52a1E)
.Ltmp163:
	.loc	2 37 28
	addi	a4, s0, 4
	add	s0, a4, a2
.Ltmp164:
	add	a5, a5, s0
	.loc	2 37 27 is_stmt 0
	addi	a5, a5, -1
.Ltmp165:
	.loc	2 37 61
	neg	a2, a2
.Ltmp166:
	.loc	2 37 27
	and	s0, a5, a2
.Ltmp167:
	.loc	2 40 37 is_stmt 1
	sub	a2, a3, a4
.Ltmp168:
	.loc	2 43 34
	add	a5, s0, a2
	lui	a4, 262144
	mv	a2, a1
.Ltmp169:
	.loc	2 0 34 is_stmt 0
	mv	a1, a0
.Ltmp170:
	li	a0, 0
.Ltmp171:
	.loc	2 45 12 is_stmt 1
	bltu	a4, a5, .LBB15_5
.Ltmp172:
	.loc	11 1354 9
	sw	a5, %lo(_ZN7runtime9allocator6GLOBAL17h1fb95a21b2cd52a1E)(a6)
.Ltmp173:
	.loc	16 267 12
	beqz	s0, .LBB15_6
.Ltmp174:
	.file	17 "/home/isk/.rustup/toolchains/nightly-2023-01-03-x86_64-unknown-linux-gnu/lib/rustlib/src/rust/library/core/src" "cmp.rs"
	.loc	17 0 0 is_stmt 0
	bltu	a2, a3, .LBB15_4
.Ltmp175:
	mv	a2, a3
.Ltmp176:
.LBB15_4:
	.file	18 "/home/isk/.rustup/toolchains/nightly-2023-01-03-x86_64-unknown-linux-gnu/lib/rustlib/src/rust/library/core/src" "intrinsics.rs"
	.loc	18 2372 9 is_stmt 1
	mv	a0, s0
	call	memcpy@plt
.Ltmp177:
	.loc	18 0 9 is_stmt 0
	mv	a0, s0
.Ltmp178:
.LBB15_5:
	.loc	2 59 95 is_stmt 1
	lw	ra, 12(sp)
	lw	s0, 8(sp)
	addi	sp, sp, 16
	ret
.LBB15_6:
.Ltmp179:
	.loc	2 0 95 is_stmt 0
	li	a0, 0
	.loc	2 59 95
	lw	ra, 12(sp)
	lw	s0, 8(sp)
	addi	sp, sp, 16
	ret
.Ltmp180:
.Lfunc_end15:
	.size	__rg_realloc, .Lfunc_end15-__rg_realloc
	.cfi_endproc

	.section	.text.__rg_alloc_zeroed,"ax",@progbits
	.globl	__rg_alloc_zeroed
	.p2align	1
	.type	__rg_alloc_zeroed,@function
__rg_alloc_zeroed:
.Lfunc_begin16:
	.loc	2 59 0 is_stmt 1
	.cfi_startproc
	addi	sp, sp, -16
	.cfi_def_cfa_offset 16
.Ltmp181:
	.loc	16 0 0 is_stmt 0
	sw	ra, 12(sp)
	sw	s0, 8(sp)
	.cfi_offset ra, -4
	.cfi_offset s0, -8
.Ltmp182:
	mv	a2, a0
.Ltmp183:
	.loc	14 452 18 prologue_end is_stmt 1
	lui	a3, %hi(_ZN7runtime9allocator6GLOBAL17h1fb95a21b2cd52a1E)
	lw	a0, %lo(_ZN7runtime9allocator6GLOBAL17h1fb95a21b2cd52a1E)(a3)
	addi	a4, a3, %lo(_ZN7runtime9allocator6GLOBAL17h1fb95a21b2cd52a1E)
.Ltmp184:
	.loc	2 37 28
	addi	a4, a4, 4
.Ltmp185:
	add	a5, a4, a1
	add	a0, a0, a5
	.loc	2 37 27 is_stmt 0
	addi	a0, a0, -1
.Ltmp186:
	.loc	2 37 61
	neg	a1, a1
.Ltmp187:
	.loc	2 37 27
	and	s0, a0, a1
.Ltmp188:
	.loc	2 40 37 is_stmt 1
	sub	a0, a2, a4
.Ltmp189:
	.loc	2 43 34
	add	a1, s0, a0
	lui	a4, 262144
	li	a0, 0
.Ltmp190:
	.loc	2 45 12
	bltu	a4, a1, .LBB16_3
.Ltmp191:
	.loc	11 1354 9
	sw	a1, %lo(_ZN7runtime9allocator6GLOBAL17h1fb95a21b2cd52a1E)(a3)
.Ltmp192:
	.loc	16 198 12
	beqz	s0, .LBB16_4
.Ltmp193:
	.loc	18 2529 9
	mv	a0, s0
	li	a1, 0
	call	memset@plt
.Ltmp194:
	.loc	18 0 9 is_stmt 0
	mv	a0, s0
.Ltmp195:
.LBB16_3:
	.loc	2 59 95 is_stmt 1
	lw	ra, 12(sp)
	lw	s0, 8(sp)
	addi	sp, sp, 16
	ret
.LBB16_4:
.Ltmp196:
	.loc	2 0 95 is_stmt 0
	li	a0, 0
	.loc	2 59 95
	lw	ra, 12(sp)
	lw	s0, 8(sp)
	addi	sp, sp, 16
	ret
.Ltmp197:
.Lfunc_end16:
	.size	__rg_alloc_zeroed, .Lfunc_end16-__rg_alloc_zeroed
	.cfi_endproc

	.section	.text._ZN7runtime9allocator11alloc_error17hdd16da31cc3b5908E,"ax",@progbits
	.p2align	1
	.type	_ZN7runtime9allocator11alloc_error17hdd16da31cc3b5908E,@function
_ZN7runtime9allocator11alloc_error17hdd16da31cc3b5908E:
.Lfunc_begin17:
	.loc	2 62 0 is_stmt 1
	.cfi_startproc
	addi	sp, sp, -48
	.cfi_def_cfa_offset 48
.Ltmp198:
	.file	19 "/home/isk/.rustup/toolchains/nightly-2023-01-03-x86_64-unknown-linux-gnu/lib/rustlib/src/rust/library/core/src/alloc" "layout.rs"
	.loc	19 129 9 prologue_end
	sw	a0, 40(sp)
.Ltmp199:
	.file	20 "/home/isk/.rustup/toolchains/nightly-2023-01-03-x86_64-unknown-linux-gnu/lib/rustlib/src/rust/library/core/src/ptr" "alignment.rs"
	.loc	20 97 9
	sw	a1, 44(sp)
	addi	a0, sp, 40
.Ltmp200:
	.loc	2 63 5
	sw	a0, 24(sp)
	lui	a0, %hi(_ZN4core3fmt3num3imp54_$LT$impl$u20$core..fmt..Display$u20$for$u20$usize$GT$3fmt17heac44e71993edc05E)
	addi	a0, a0, %lo(_ZN4core3fmt3num3imp54_$LT$impl$u20$core..fmt..Display$u20$for$u20$usize$GT$3fmt17heac44e71993edc05E)
	sw	a0, 28(sp)
	addi	a1, sp, 44
.Ltmp201:
	sw	a1, 32(sp)
	sw	a0, 36(sp)
.Ltmp202:
	.loc	3 398 9
	lui	a0, %hi(.L__unnamed_7)
	addi	a0, a0, %lo(.L__unnamed_7)
.Ltmp203:
	sw	a0, 8(sp)
	li	a0, 3
.Ltmp204:
	sw	a0, 12(sp)
	sw	zero, 0(sp)
	addi	a0, sp, 24
	sw	a0, 16(sp)
	li	a0, 2
	sw	a0, 20(sp)
.Ltmp205:
	.loc	2 63 5
	lui	a0, %hi(.L__unnamed_8)
	addi	a1, a0, %lo(.L__unnamed_8)
	mv	a0, sp
	call	_ZN4core9panicking9panic_fmt17h9fa3957e329d7a8dE
	unimp	
.Ltmp206:
.Lfunc_end17:
	.size	_ZN7runtime9allocator11alloc_error17hdd16da31cc3b5908E, .Lfunc_end17-_ZN7runtime9allocator11alloc_error17hdd16da31cc3b5908E
	.cfi_endproc

	.section	.text.__rg_oom,"ax",@progbits
	.globl	__rg_oom
	.p2align	1
	.type	__rg_oom,@function
__rg_oom:
.Lfunc_begin18:
	.loc	2 62 0
	.cfi_startproc
	.cfi_def_cfa_offset 0
	.loc	2 62 1 prologue_end
	call	_ZN7runtime9allocator11alloc_error17hdd16da31cc3b5908E
.Ltmp207:
	unimp	
.Ltmp208:
.Lfunc_end18:
	.size	__rg_oom, .Lfunc_end18-__rg_oom
	.cfi_endproc

	.type	.L__unnamed_1,@object
	.section	.rodata..L__unnamed_1,"a",@progbits
	.p2align	2
.L__unnamed_1:
	.word	_ZN4core3ptr37drop_in_place$LT$core..fmt..Error$GT$17hdbf2508ea5271c6aE
	.asciz	"\004\000\000\000\004\000\000"
	.word	_ZN50_$LT$$RF$mut$u20$W$u20$as$u20$core..fmt..Write$GT$9write_str17hdf6f33c3cf84f49fE
	.word	_ZN50_$LT$$RF$mut$u20$W$u20$as$u20$core..fmt..Write$GT$10write_char17h549481de3947b733E
	.word	_ZN50_$LT$$RF$mut$u20$W$u20$as$u20$core..fmt..Write$GT$9write_fmt17hb4b4de78c9976264E
	.size	.L__unnamed_1, 24

	.type	.L__unnamed_9,@object
	.section	.rodata..L__unnamed_9,"a",@progbits
	.p2align	2
.L__unnamed_9:
	.size	.L__unnamed_9, 0

	.type	.L__unnamed_2,@object
	.section	.rodata..L__unnamed_2,"a",@progbits
	.p2align	2
.L__unnamed_2:
	.word	_ZN4core3ptr37drop_in_place$LT$core..fmt..Error$GT$17hdbf2508ea5271c6aE
	.asciz	"\000\000\000\000\001\000\000"
	.word	_ZN63_$LT$runtime..fmt..ProverWriter$u20$as$u20$core..fmt..Write$GT$9write_str17h4bb684c28ad13d4cE
	.word	_ZN4core3fmt5Write10write_char17hb89db1f3f358db2cE
	.word	_ZN4core3fmt5Write9write_fmt17hdd192214879d3752E
	.size	.L__unnamed_2, 24

	.type	.L__unnamed_4,@object
	.section	.rodata..L__unnamed_4,"a",@progbits
.L__unnamed_4:
	.ascii	"called `Result::unwrap()` on an `Err` value"
	.size	.L__unnamed_4, 43

	.type	.L__unnamed_3,@object
	.section	.rodata..L__unnamed_3,"a",@progbits
	.p2align	2
.L__unnamed_3:
	.word	_ZN4core3ptr37drop_in_place$LT$core..fmt..Error$GT$17hdbf2508ea5271c6aE
	.asciz	"\000\000\000\000\001\000\000"
	.word	_ZN53_$LT$core..fmt..Error$u20$as$u20$core..fmt..Debug$GT$3fmt17hc3a38d13f7471d1eE
	.size	.L__unnamed_3, 16

	.type	.L__unnamed_10,@object
	.section	.rodata..L__unnamed_10,"a",@progbits
.L__unnamed_10:
	.ascii	"runtime/src/fmt.rs"
	.size	.L__unnamed_10, 18

	.type	.L__unnamed_5,@object
	.section	.rodata..L__unnamed_5,"a",@progbits
	.p2align	2
.L__unnamed_5:
	.word	.L__unnamed_10
	.asciz	"\022\000\000\000\f\000\000\000,\000\000"
	.size	.L__unnamed_5, 16

	.type	.L__unnamed_11,@object
	.section	.rodata..L__unnamed_11,"a",@progbits
.L__unnamed_11:
	.byte	10
	.size	.L__unnamed_11, 1

	.type	.L__unnamed_6,@object
	.section	.rodata..L__unnamed_6,"a",@progbits
	.p2align	2
.L__unnamed_6:
	.word	.L__unnamed_9
	.zero	4
	.word	.L__unnamed_11
	.asciz	"\001\000\000"
	.size	.L__unnamed_6, 16

	.type	_ZN7runtime5panic12IS_PANICKING17h8bfa2bfcd2ea3115E.0,@object
	.section	.sbss,"aw",@nobits
_ZN7runtime5panic12IS_PANICKING17h8bfa2bfcd2ea3115E.0:
	.byte	0
	.size	_ZN7runtime5panic12IS_PANICKING17h8bfa2bfcd2ea3115E.0, 1

	.type	_ZN7runtime9allocator6GLOBAL17h1fb95a21b2cd52a1E,@object
	.section	.bss._ZN7runtime9allocator6GLOBAL17h1fb95a21b2cd52a1E,"aw",@nobits
	.p2align	2
_ZN7runtime9allocator6GLOBAL17h1fb95a21b2cd52a1E:
	.zero	1073741828
	.size	_ZN7runtime9allocator6GLOBAL17h1fb95a21b2cd52a1E, 1073741828

	.type	.L__unnamed_12,@object
	.section	.rodata..L__unnamed_12,"a",@progbits
.L__unnamed_12:
	.ascii	"memory allocation of "
	.size	.L__unnamed_12, 21

	.type	.L__unnamed_13,@object
	.section	.rodata..L__unnamed_13,"a",@progbits
.L__unnamed_13:
	.ascii	" bytes with alignment "
	.size	.L__unnamed_13, 22

	.type	.L__unnamed_14,@object
	.section	.rodata..L__unnamed_14,"a",@progbits
.L__unnamed_14:
	.ascii	" failed"
	.size	.L__unnamed_14, 7

	.type	.L__unnamed_7,@object
	.section	.rodata..L__unnamed_7,"a",@progbits
	.p2align	2
.L__unnamed_7:
	.word	.L__unnamed_12
	.asciz	"\025\000\000"
	.word	.L__unnamed_13
	.asciz	"\026\000\000"
	.word	.L__unnamed_14
	.asciz	"\007\000\000"
	.size	.L__unnamed_7, 24

	.type	.L__unnamed_15,@object
	.section	.rodata..L__unnamed_15,"a",@progbits
.L__unnamed_15:
	.ascii	"runtime/src/allocator.rs"
	.size	.L__unnamed_15, 24

	.type	.L__unnamed_8,@object
	.section	.rodata..L__unnamed_8,"a",@progbits
	.p2align	2
.L__unnamed_8:
	.word	.L__unnamed_15
	.asciz	"\030\000\000\000?\000\000\000\005\000\000"
	.size	.L__unnamed_8, 16

	.section	.rodata..L__unnamed_1,"a",@progbits
.Lsec_end0:
	.section	.rodata..L__unnamed_2,"a",@progbits
.Lsec_end1:
	.section	.rodata..L__unnamed_3,"a",@progbits
.Lsec_end2:
	.section	.sbss,"aw",@nobits
.Lsec_end3:
	.section	.bss._ZN7runtime9allocator6GLOBAL17h1fb95a21b2cd52a1E,"aw",@nobits
.Lsec_end4:
	.section	".text._ZN44_$LT$$RF$T$u20$as$u20$core..fmt..Display$GT$3fmt17h836d5850d2369794E","ax",@progbits
.Lsec_end5:
	.section	.text._ZN4core3fmt5Write10write_char17hb89db1f3f358db2cE,"ax",@progbits
.Lsec_end6:
	.section	.text._ZN4core3fmt5Write9write_fmt17hdd192214879d3752E,"ax",@progbits
.Lsec_end7:
	.section	".text._ZN4core3ptr37drop_in_place$LT$core..fmt..Error$GT$17hdbf2508ea5271c6aE","ax",@progbits
.Lsec_end8:
	.section	".text._ZN50_$LT$$RF$mut$u20$W$u20$as$u20$core..fmt..Write$GT$10write_char17h549481de3947b733E","ax",@progbits
.Lsec_end9:
	.section	".text._ZN50_$LT$$RF$mut$u20$W$u20$as$u20$core..fmt..Write$GT$9write_fmt17hb4b4de78c9976264E","ax",@progbits
.Lsec_end10:
	.section	".text._ZN50_$LT$$RF$mut$u20$W$u20$as$u20$core..fmt..Write$GT$9write_str17hdf6f33c3cf84f49fE","ax",@progbits
.Lsec_end11:
	.section	.text._ZN7runtime12coprocessors13poseidon_hash17he26469b93349f9c5E,"ax",@progbits
.Lsec_end12:
	.section	.text._ZN7runtime3fmt10print_args17h58dac8894c543139E,"ax",@progbits
.Lsec_end13:
	.section	".text._ZN63_$LT$runtime..fmt..ProverWriter$u20$as$u20$core..fmt..Write$GT$9write_str17h4bb684c28ad13d4cE","ax",@progbits
.Lsec_end14:
	.section	.text._ZN7runtime3fmt9print_str17hb830686122d90663E,"ax",@progbits
.Lsec_end15:
	.section	.text.rust_begin_unwind,"ax",@progbits
.Lsec_end16:
	.section	.text.__runtime_start,"ax",@progbits
.Lsec_end17:
	.section	.text.__rg_alloc,"ax",@progbits
.Lsec_end18:
	.section	.text.__rg_dealloc,"ax",@progbits
.Lsec_end19:
	.section	.text.__rg_realloc,"ax",@progbits
.Lsec_end20:
	.section	.text.__rg_alloc_zeroed,"ax",@progbits
.Lsec_end21:
	.section	.text._ZN7runtime9allocator11alloc_error17hdd16da31cc3b5908E,"ax",@progbits
.Lsec_end22:
	.section	.text.__rg_oom,"ax",@progbits
.Lsec_end23:
	.section	".note.GNU-stack","",@progbits